target datalayout = "e-m:e-p270:32:32-p271:32:32-p272:64:64-i64:64-i128:128-f80:128-n8:16:32:64-S128"
target triple = "x86_64-pc-linux-gnu"

%"struct.Luau::Lexeme" = type { i32, %"struct.Luau::Location", i32, %union.anon }
%"struct.Luau::Location" = type { %"struct.Luau::Position", %"struct.Luau::Position" }
%"struct.Luau::Position" = type { i32, i32 }
%union.anon = type { ptr }
%"class.Luau::Lexer" = type { ptr, i64, i32, i32, i32, %"struct.Luau::Lexeme", %"struct.Luau::Location", ptr, i8, i8, %"class.std::vector" }
%"class.std::vector" = type { %"struct.std::_Vector_base" }
%"struct.std::_Vector_base" = type { %"struct.std::_Vector_base<Luau::Lexer::BraceType, std::allocator<Luau::Lexer::BraceType>>::_Vector_impl" }
%"struct.std::_Vector_base<Luau::Lexer::BraceType, std::allocator<Luau::Lexer::BraceType>>::_Vector_impl" = type { %"struct.std::_Vector_base<Luau::Lexer::BraceType, std::allocator<Luau::Lexer::BraceType>>::_Vector_impl_data" }
%"struct.std::_Vector_base<Luau::Lexer::BraceType, std::allocator<Luau::Lexer::BraceType>>::_Vector_impl_data" = type { ptr, ptr, ptr }

; Function Attrs: mustprogress nounwind uwtable
define linkonce_odr dso_local void @_ZN4Luau8PositionC2Ejj(ptr noundef nonnull align 4 dereferenceable(8) %0, i32 noundef %1, i32 noundef %2) unnamed_addr #2 comdat align 2 {
  %4 = alloca ptr, align 8
  %5 = alloca i32, align 4
  %6 = alloca i32, align 4
  store ptr %0, ptr %4, align 8, !tbaa !87
  store i32 %1, ptr %5, align 4, !tbaa !4
  store i32 %2, ptr %6, align 4, !tbaa !4
  %7 = load ptr, ptr %4, align 8
  %8 = getelementptr inbounds nuw %"struct.Luau::Position", ptr %7, i32 0, i32 0
  %9 = load i32, ptr %5, align 4, !tbaa !4
  store i32 %9, ptr %8, align 4, !tbaa !81
  %10 = getelementptr inbounds nuw %"struct.Luau::Position", ptr %7, i32 0, i32 1
  %11 = load i32, ptr %6, align 4, !tbaa !4
  store i32 %11, ptr %10, align 4, !tbaa !83
  ret void
}

; Function Attrs: alwaysinline mustprogress nounwind uwtable
define linkonce_odr dso_local void @_ZN4Luau5Lexer7consumeEv(ptr noundef nonnull align 8 dereferenceable(120) %0) #8 comdat align 2 {
  %2 = alloca ptr, align 8
  store ptr %0, ptr %2, align 8, !tbaa !71
  %3 = load ptr, ptr %2, align 8
  %4 = getelementptr inbounds nuw %"class.Luau::Lexer", ptr %3, i32 0, i32 2
  %5 = load i32, ptr %4, align 8, !tbaa !80
  %6 = add i32 %5, 1
  store i32 %6, ptr %4, align 8, !tbaa !80
  ret void
}

; Function Attrs: alwaysinline mustprogress uwtable
define linkonce_odr dso_local i64 @_ZNK4Luau5Lexer8positionEv(ptr noundef nonnull align 8 dereferenceable(120) %0) #9 comdat align 2 {
  %2 = alloca %"struct.Luau::Position", align 4
  %3 = alloca ptr, align 8
  store ptr %0, ptr %3, align 8, !tbaa !71
  %4 = load ptr, ptr %3, align 8
  %5 = getelementptr inbounds nuw %"class.Luau::Lexer", ptr %4, i32 0, i32 3
  %6 = load i32, ptr %5, align 4, !tbaa !82
  %7 = getelementptr inbounds nuw %"class.Luau::Lexer", ptr %4, i32 0, i32 2
  %8 = load i32, ptr %7, align 8, !tbaa !80
  %9 = getelementptr inbounds nuw %"class.Luau::Lexer", ptr %4, i32 0, i32 4
  %10 = load i32, ptr %9, align 8, !tbaa !84
  %11 = sub i32 %8, %10
  call void @_ZN4Luau8PositionC2Ejj(ptr noundef nonnull align 4 dereferenceable(8) %2, i32 noundef %6, i32 noundef %11)
  %12 = load i64, ptr %2, align 4
  ret i64 %12
}

; Function Attrs: mustprogress uwtable
define dso_local void @_ZN4Luau5Lexer27readInterpolatedStringBeginEv(ptr dead_on_unwind noalias writable sret(%"struct.Luau::Lexeme") align 8 %0, ptr noundef nonnull align 8 dereferenceable(120) %1) #4 align 2 {
  %3 = alloca ptr, align 8
  %4 = alloca %"struct.Luau::Position", align 4
  %5 = alloca %"struct.Luau::Position", align 4
  store ptr %1, ptr %3, align 8, !tbaa !71
  %6 = load ptr, ptr %3, align 8
  call void @llvm.lifetime.start.p0(i64 8, ptr %4) #18
  %7 = call i64 @_ZNK4Luau5Lexer8positionEv(ptr noundef nonnull align 8 dereferenceable(120) %6)
  store i64 %7, ptr %4, align 4
  call void @_ZN4Luau5Lexer7consumeEv(ptr noundef nonnull align 8 dereferenceable(120) %6)
  call void @llvm.memcpy.p0.p0.i64(ptr align 4 %5, ptr align 4 %4, i64 8, i1 false), !tbaa.struct !89
  %8 = load i64, ptr %5, align 4
  call void @_ZN4Luau5Lexer29readInterpolatedStringSectionENS_8PositionENS_6Lexeme4TypeES3_(ptr dead_on_unwind writable sret(%"struct.Luau::Lexeme") align 8 %0, ptr noundef nonnull align 8 dereferenceable(120) %6, i64 %8, i32 noundef 266, i32 noundef 269)
  call void @llvm.lifetime.end.p0(i64 8, ptr %4) #18
  ret void
}