; Function Attrs: mustprogress uwtable
define dso_local void @_ZN4Luau5Lexer27readInterpolatedStringBeginEv(ptr dead_on_unwind noalias writable writeonly sret(%"struct.Luau::Lexeme") align 8 captures(none) %0, ptr noundef nonnull align 8 captures(none) dereferenceable(120) %1) local_unnamed_addr #5 align 2 {
  %3 = getelementptr inbounds nuw i8, ptr %1, i64 20
  %4 = load i32, ptr %3, align 4, !tbaa !66
  %5 = getelementptr inbounds nuw i8, ptr %1, i64 16
  %6 = load i32, ptr %5, align 8, !tbaa !60
  %7 = getelementptr inbounds nuw i8, ptr %1, i64 24
  %8 = load i32, ptr %7, align 8, !tbaa !67
  %9 = sub i32 %6, %8
  %.sroa.4.0.insert.ext = zext i32 %9 to i64
  %.sroa.4.0.insert.shift = shl nuw i64 %.sroa.4.0.insert.ext, 32
  %.sroa.0.0.insert.ext = zext i32 %4 to i64
  %.sroa.0.0.insert.insert = or disjoint i64 %.sroa.4.0.insert.shift, %.sroa.0.0.insert.ext
  %10 = add i32 %6, 1
  store i32 %10, ptr %5, align 8, !tbaa !60
  tail call void @_ZN4Luau5Lexer29readInterpolatedStringSectionENS_8PositionENS_6Lexeme4TypeES3_(ptr dead_on_unwind writable sret(%"struct.Luau::Lexeme") align 8 %0, ptr noundef nonnull align 8 dereferenceable(120) %1, i64 %.sroa.0.0.insert.insert, i32 noundef 266, i32 noundef 269)
  ret void
}